target datalayout = "e-m:e-p270:32:32-p271:32:32-p272:64:64-i64:64-i128:128-f80:128-n8:16:32:64-S128"
target triple = "x86_64-pc-linux-gnu"

@pg_dir_create_mode = external global i32, align 4
@.str.91 = private unnamed_addr constant [36 x i8] c"could not create directory \22%s\22: %m\00", align 1
@.str.92 = private unnamed_addr constant [39 x i8] c"directory \22%s\22 exists but is not empty\00", align 1
@.str.93 = private unnamed_addr constant [36 x i8] c"could not access directory \22%s\22: %m\00", align 1

; Function Attrs: nounwind uwtable
define internal void @create_fullpage_directory(ptr noundef %0) #0 {
  %2 = alloca ptr, align 8
  %3 = alloca i32, align 4
  store ptr %0, ptr %2, align 8
  call void @llvm.lifetime.start.p0(i64 4, ptr %3) #10
  %4 = load ptr, ptr %2, align 8
  %5 = call i32 @pg_check_dir(ptr noundef %4)
  store i32 %5, ptr %3, align 4
  switch i32 %5, label %22 [
    i32 0, label %6
    i32 1, label %27
    i32 2, label %17
    i32 3, label %17
    i32 4, label %17
  ]

6:                                                ; preds = %1
  %7 = load ptr, ptr %2, align 8
  %8 = load i32, ptr @pg_dir_create_mode, align 4
  %9 = call i32 @pg_mkdir_p(ptr noundef %7, i32 noundef %8)
  %10 = icmp slt i32 %9, 0
  br i1 %10, label %11, label %16

11:                                               ; preds = %6
  br label %12

12:                                               ; preds = %11
  %13 = load ptr, ptr %2, align 8
  call void (i32, i32, ptr, ...) @pg_log_generic(i32 noundef 4, i32 noundef 0, ptr noundef @.str.91, ptr noundef %13)
  call void @exit(i32 noundef 1) #12
  unreachable

14:                                               ; No predecessors!
  br label %15

15:                                               ; preds = %14
  br label %16

16:                                               ; preds = %15, %6
  br label %27

17:                                               ; preds = %1, %1, %1
  br label %18

18:                                               ; preds = %17
  %19 = load ptr, ptr %2, align 8
  call void (i32, i32, ptr, ...) @pg_log_generic(i32 noundef 4, i32 noundef 0, ptr noundef @.str.92, ptr noundef %19)
  call void @exit(i32 noundef 1) #12
  unreachable

20:                                               ; No predecessors!
  br label %21

21:                                               ; preds = %20
  br label %27

22:                                               ; preds = %1
  br label %23

23:                                               ; preds = %22
  %24 = load ptr, ptr %2, align 8
  call void (i32, i32, ptr, ...) @pg_log_generic(i32 noundef 4, i32 noundef 0, ptr noundef @.str.93, ptr noundef %24)
  call void @exit(i32 noundef 1) #12
  unreachable

25:                                               ; No predecessors!
  br label %26

26:                                               ; preds = %25
  br label %27

27:                                               ; preds = %26, %21, %1, %16
  call void @llvm.lifetime.end.p0(i64 4, ptr %3) #10
  ret void
}