; Function Attrs: nounwind uwtable
define internal fastcc void @create_fullpage_directory(ptr noundef nonnull %0) unnamed_addr #0 {
  %2 = tail call i32 @pg_check_dir(ptr noundef nonnull %0) #16
  switch i32 %2, label %9 [
    i32 0, label %3
    i32 1, label %10
    i32 2, label %8
    i32 3, label %8
    i32 4, label %8
  ]

3:                                                ; preds = %1
  %4 = load i32, ptr @pg_dir_create_mode, align 4
  %5 = tail call i32 @pg_mkdir_p(ptr noundef nonnull %0, i32 noundef %4) #16
  %6 = icmp slt i32 %5, 0
  br i1 %6, label %7, label %10

7:                                                ; preds = %3
  tail call void (i32, i32, ptr, ...) @pg_log_generic(i32 noundef 4, i32 noundef 0, ptr noundef nonnull @.str.91, ptr noundef nonnull %0) #16
  tail call void @exit(i32 noundef 1) #20
  unreachable

8:                                                ; preds = %1, %1, %1
  tail call void (i32, i32, ptr, ...) @pg_log_generic(i32 noundef 4, i32 noundef 0, ptr noundef nonnull @.str.92, ptr noundef nonnull %0) #16
  tail call void @exit(i32 noundef 1) #20
  unreachable

9:                                                ; preds = %1
  tail call void (i32, i32, ptr, ...) @pg_log_generic(i32 noundef 4, i32 noundef 0, ptr noundef nonnull @.str.93, ptr noundef nonnull %0) #16
  tail call void @exit(i32 noundef 1) #20
  unreachable

10:                                               ; preds = %3, %1
  ret void
}